target datalayout = "e-m:e-p270:32:32-p271:32:32-p272:64:64-i64:64-i128:128-f80:128-n8:16:32:64-S128"
target triple = "x86_64-pc-linux-gnu"

%struct.ASN1_ITEM_st = type { i8, i64, ptr, i64, ptr, i64, ptr }
%struct.ASN1_AUX_st = type { ptr, i32, i32, i32, ptr, i32, ptr }
%struct.ASN1_TEMPLATE_st = type { i64, i64, i64, ptr, ptr }
%struct.ASN1_EXTERN_FUNCS_st = type { ptr, ptr, ptr, ptr, ptr, ptr, ptr, ptr, ptr }

@.str = private unnamed_addr constant [34 x i8] c"../openssl/crypto/asn1/tasn_fre.c\00", align 1
@.str.1 = private unnamed_addr constant [29 x i8] c"assertion failed: embed == 0\00", align 1

; Function Attrs: nounwind uwtable
define void @ossl_asn1_item_embed_free(ptr noundef %0, ptr noundef %1, i32 noundef %2) #0 {
  %4 = alloca ptr, align 8
  %5 = alloca ptr, align 8
  %6 = alloca i32, align 4
  %7 = alloca ptr, align 8
  %8 = alloca ptr, align 8
  %9 = alloca ptr, align 8
  %10 = alloca ptr, align 8
  %11 = alloca ptr, align 8
  %12 = alloca i32, align 4
  %13 = alloca i32, align 4
  %14 = alloca ptr, align 8
  %15 = alloca ptr, align 8
  store ptr %0, ptr %4, align 8, !tbaa !10
  store ptr %1, ptr %5, align 8, !tbaa !8
  store i32 %2, ptr %6, align 4, !tbaa !12
  call void @llvm.lifetime.start.p0(i64 8, ptr %7) #5
  store ptr null, ptr %7, align 8, !tbaa !14
  call void @llvm.lifetime.start.p0(i64 8, ptr %8) #5
  call void @llvm.lifetime.start.p0(i64 8, ptr %9) #5
  call void @llvm.lifetime.start.p0(i64 8, ptr %10) #5
  %16 = load ptr, ptr %5, align 8, !tbaa !8
  %17 = getelementptr inbounds nuw %struct.ASN1_ITEM_st, ptr %16, i32 0, i32 4
  %18 = load ptr, ptr %17, align 8, !tbaa !16
  store ptr %18, ptr %10, align 8, !tbaa !20
  call void @llvm.lifetime.start.p0(i64 8, ptr %11) #5
  call void @llvm.lifetime.start.p0(i64 4, ptr %12) #5
  %19 = load ptr, ptr %4, align 8, !tbaa !10
  %20 = icmp eq ptr %19, null
  br i1 %20, label %21, label %22

21:                                               ; preds = %3
  store i32 1, ptr %13, align 4
  br label %222

22:                                               ; preds = %3
  %23 = load ptr, ptr %5, align 8, !tbaa !8
  %24 = getelementptr inbounds nuw %struct.ASN1_ITEM_st, ptr %23, i32 0, i32 0
  %25 = load i8, ptr %24, align 8, !tbaa !22
  %26 = sext i8 %25 to i32
  %27 = icmp ne i32 %26, 0
  br i1 %27, label %28, label %33

28:                                               ; preds = %22
  %29 = load ptr, ptr %4, align 8, !tbaa !10
  %30 = load ptr, ptr %29, align 8, !tbaa !3
  %31 = icmp eq ptr %30, null
  br i1 %31, label %32, label %33

32:                                               ; preds = %28
  store i32 1, ptr %13, align 4
  br label %222

33:                                               ; preds = %28, %22
  %34 = load ptr, ptr %10, align 8, !tbaa !20
  %35 = icmp ne ptr %34, null
  br i1 %35, label %36, label %45

36:                                               ; preds = %33
  %37 = load ptr, ptr %10, align 8, !tbaa !20
  %38 = getelementptr inbounds nuw %struct.ASN1_AUX_st, ptr %37, i32 0, i32 4
  %39 = load ptr, ptr %38, align 8, !tbaa !23
  %40 = icmp ne ptr %39, null
  br i1 %40, label %41, label %45

41:                                               ; preds = %36
  %42 = load ptr, ptr %10, align 8, !tbaa !20
  %43 = getelementptr inbounds nuw %struct.ASN1_AUX_st, ptr %42, i32 0, i32 4
  %44 = load ptr, ptr %43, align 8, !tbaa !23
  store ptr %44, ptr %11, align 8, !tbaa !25
  br label %46

45:                                               ; preds = %36, %33
  store ptr null, ptr %11, align 8, !tbaa !25
  br label %46

46:                                               ; preds = %45, %41
  %47 = load ptr, ptr %5, align 8, !tbaa !8
  %48 = getelementptr inbounds nuw %struct.ASN1_ITEM_st, ptr %47, i32 0, i32 0
  %49 = load i8, ptr %48, align 8, !tbaa !22
  %50 = sext i8 %49 to i32
  switch i32 %50, label %221 [
    i32 0, label %51
    i32 5, label %66
    i32 2, label %70
    i32 4, label %123
    i32 6, label %141
    i32 1, label %141
  ]

51:                                               ; preds = %46
  %52 = load ptr, ptr %5, align 8, !tbaa !8
  %53 = getelementptr inbounds nuw %struct.ASN1_ITEM_st, ptr %52, i32 0, i32 2
  %54 = load ptr, ptr %53, align 8, !tbaa !26
  %55 = icmp ne ptr %54, null
  br i1 %55, label %56, label %61

56:                                               ; preds = %51
  %57 = load ptr, ptr %4, align 8, !tbaa !10
  %58 = load ptr, ptr %5, align 8, !tbaa !8
  %59 = getelementptr inbounds nuw %struct.ASN1_ITEM_st, ptr %58, i32 0, i32 2
  %60 = load ptr, ptr %59, align 8, !tbaa !26
  call void @ossl_asn1_template_free(ptr noundef %57, ptr noundef %60)
  br label %65

61:                                               ; preds = %51
  %62 = load ptr, ptr %4, align 8, !tbaa !10
  %63 = load ptr, ptr %5, align 8, !tbaa !8
  %64 = load i32, ptr %6, align 4, !tbaa !12
  call void @ossl_asn1_primitive_free(ptr noundef %62, ptr noundef %63, i32 noundef %64)
  br label %65

65:                                               ; preds = %61, %56
  br label %221

66:                                               ; preds = %46
  %67 = load ptr, ptr %4, align 8, !tbaa !10
  %68 = load ptr, ptr %5, align 8, !tbaa !8
  %69 = load i32, ptr %6, align 4, !tbaa !12
  call void @ossl_asn1_primitive_free(ptr noundef %67, ptr noundef %68, i32 noundef %69)
  br label %221

70:                                               ; preds = %46
  %71 = load ptr, ptr %11, align 8, !tbaa !25
  %72 = icmp ne ptr %71, null
  br i1 %72, label %73, label %82

73:                                               ; preds = %70
  %74 = load ptr, ptr %11, align 8, !tbaa !25
  %75 = load ptr, ptr %4, align 8, !tbaa !10
  %76 = load ptr, ptr %5, align 8, !tbaa !8
  %77 = call i32 %74(i32 noundef 2, ptr noundef %75, ptr noundef %76, ptr noundef null)
  store i32 %77, ptr %12, align 4, !tbaa !12
  %78 = load i32, ptr %12, align 4, !tbaa !12
  %79 = icmp eq i32 %78, 2
  br i1 %79, label %80, label %81

80:                                               ; preds = %73
  store i32 1, ptr %13, align 4
  br label %222

81:                                               ; preds = %73
  br label %82

82:                                               ; preds = %81, %70
  %83 = load ptr, ptr %4, align 8, !tbaa !10
  %84 = load ptr, ptr %5, align 8, !tbaa !8
  %85 = call i32 @ossl_asn1_get_choice_selector(ptr noundef %83, ptr noundef %84)
  store i32 %85, ptr %12, align 4, !tbaa !12
  %86 = load i32, ptr %12, align 4, !tbaa !12
  %87 = icmp sge i32 %86, 0
  br i1 %87, label %88, label %107

88:                                               ; preds = %82
  %89 = load i32, ptr %12, align 4, !tbaa !12
  %90 = sext i32 %89 to i64
  %91 = load ptr, ptr %5, align 8, !tbaa !8
  %92 = getelementptr inbounds nuw %struct.ASN1_ITEM_st, ptr %91, i32 0, i32 3
  %93 = load i64, ptr %92, align 8, !tbaa !27
  %94 = icmp slt i64 %90, %93
  br i1 %94, label %95, label %107

95:                                               ; preds = %88
  call void @llvm.lifetime.start.p0(i64 8, ptr %14) #5
  %96 = load ptr, ptr %5, align 8, !tbaa !8
  %97 = getelementptr inbounds nuw %struct.ASN1_ITEM_st, ptr %96, i32 0, i32 2
  %98 = load ptr, ptr %97, align 8, !tbaa !26
  %99 = load i32, ptr %12, align 4, !tbaa !12
  %100 = sext i32 %99 to i64
  %101 = getelementptr inbounds %struct.ASN1_TEMPLATE_st, ptr %98, i64 %100
  store ptr %101, ptr %7, align 8, !tbaa !14
  %102 = load ptr, ptr %4, align 8, !tbaa !10
  %103 = load ptr, ptr %7, align 8, !tbaa !14
  %104 = call ptr @ossl_asn1_get_field_ptr(ptr noundef %102, ptr noundef %103)
  store ptr %104, ptr %14, align 8, !tbaa !10
  %105 = load ptr, ptr %14, align 8, !tbaa !10
  %106 = load ptr, ptr %7, align 8, !tbaa !14
  call void @ossl_asn1_template_free(ptr noundef %105, ptr noundef %106)
  call void @llvm.lifetime.end.p0(i64 8, ptr %14) #5
  br label %107

107:                                              ; preds = %95, %88, %82
  %108 = load ptr, ptr %11, align 8, !tbaa !25
  %109 = icmp ne ptr %108, null
  br i1 %109, label %110, label %115

110:                                              ; preds = %107
  %111 = load ptr, ptr %11, align 8, !tbaa !25
  %112 = load ptr, ptr %4, align 8, !tbaa !10
  %113 = load ptr, ptr %5, align 8, !tbaa !8
  %114 = call i32 %111(i32 noundef 3, ptr noundef %112, ptr noundef %113, ptr noundef null)
  br label %115

115:                                              ; preds = %110, %107
  %116 = load i32, ptr %6, align 4, !tbaa !12
  %117 = icmp eq i32 %116, 0
  br i1 %117, label %118, label %122

118:                                              ; preds = %115
  %119 = load ptr, ptr %4, align 8, !tbaa !10
  %120 = load ptr, ptr %119, align 8, !tbaa !3
  call void @CRYPTO_free(ptr noundef %120, ptr noundef @.str, i32 noundef 75)
  %121 = load ptr, ptr %4, align 8, !tbaa !10
  store ptr null, ptr %121, align 8, !tbaa !3
  br label %122

122:                                              ; preds = %118, %115
  br label %221

123:                                              ; preds = %46
  %124 = load ptr, ptr %5, align 8, !tbaa !8
  %125 = getelementptr inbounds nuw %struct.ASN1_ITEM_st, ptr %124, i32 0, i32 4
  %126 = load ptr, ptr %125, align 8, !tbaa !16
  store ptr %126, ptr %9, align 8, !tbaa !28
  %127 = load ptr, ptr %9, align 8, !tbaa !28
  %128 = icmp ne ptr %127, null
  br i1 %128, label %129, label %140

129:                                              ; preds = %123
  %130 = load ptr, ptr %9, align 8, !tbaa !28
  %131 = getelementptr inbounds nuw %struct.ASN1_EXTERN_FUNCS_st, ptr %130, i32 0, i32 2
  %132 = load ptr, ptr %131, align 8, !tbaa !30
  %133 = icmp ne ptr %132, null
  br i1 %133, label %134, label %140

134:                                              ; preds = %129
  %135 = load ptr, ptr %9, align 8, !tbaa !28
  %136 = getelementptr inbounds nuw %struct.ASN1_EXTERN_FUNCS_st, ptr %135, i32 0, i32 2
  %137 = load ptr, ptr %136, align 8, !tbaa !30
  %138 = load ptr, ptr %4, align 8, !tbaa !10
  %139 = load ptr, ptr %5, align 8, !tbaa !8
  call void %137(ptr noundef %138, ptr noundef %139)
  br label %140

140:                                              ; preds = %134, %129, %123
  br label %221

141:                                              ; preds = %46, %46
  %142 = load ptr, ptr %4, align 8, !tbaa !10
  %143 = load ptr, ptr %5, align 8, !tbaa !8
  %144 = call i32 @ossl_asn1_do_lock(ptr noundef %142, i32 noundef -1, ptr noundef %143)
  %145 = icmp ne i32 %144, 0
  br i1 %145, label %146, label %154

146:                                              ; preds = %141
  %147 = load i32, ptr %6, align 4, !tbaa !12
  %148 = icmp eq i32 %147, 0
  br i1 %148, label %149, label %150

149:                                              ; preds = %146
  br label %152

150:                                              ; preds = %146
  call void @OPENSSL_die(ptr noundef @.str.1, ptr noundef @.str, i32 noundef 90) #6
  unreachable

151:                                              ; No predecessors!
  br label %152

152:                                              ; preds = %151, %149
  %153 = load ptr, ptr %4, align 8, !tbaa !10
  store ptr null, ptr %153, align 8, !tbaa !3
  store i32 1, ptr %13, align 4
  br label %222

154:                                              ; preds = %141
  %155 = load ptr, ptr %11, align 8, !tbaa !25
  %156 = icmp ne ptr %155, null
  br i1 %156, label %157, label %166

157:                                              ; preds = %154
  %158 = load ptr, ptr %11, align 8, !tbaa !25
  %159 = load ptr, ptr %4, align 8, !tbaa !10
  %160 = load ptr, ptr %5, align 8, !tbaa !8
  %161 = call i32 %158(i32 noundef 2, ptr noundef %159, ptr noundef %160, ptr noundef null)
  store i32 %161, ptr %12, align 4, !tbaa !12
  %162 = load i32, ptr %12, align 4, !tbaa !12
  %163 = icmp eq i32 %162, 2
  br i1 %163, label %164, label %165

164:                                              ; preds = %157
  store i32 1, ptr %13, align 4
  br label %222

165:                                              ; preds = %157
  br label %166

166:                                              ; preds = %165, %154
  %167 = load ptr, ptr %4, align 8, !tbaa !10
  %168 = load ptr, ptr %5, align 8, !tbaa !8
  call void @ossl_asn1_enc_free(ptr noundef %167, ptr noundef %168)
  %169 = load ptr, ptr %5, align 8, !tbaa !8
  %170 = getelementptr inbounds nuw %struct.ASN1_ITEM_st, ptr %169, i32 0, i32 2
  %171 = load ptr, ptr %170, align 8, !tbaa !26
  %172 = load ptr, ptr %5, align 8, !tbaa !8
  %173 = getelementptr inbounds nuw %struct.ASN1_ITEM_st, ptr %172, i32 0, i32 3
  %174 = load i64, ptr %173, align 8, !tbaa !27
  %175 = getelementptr inbounds %struct.ASN1_TEMPLATE_st, ptr %171, i64 %174
  store ptr %175, ptr %7, align 8, !tbaa !14
  store i32 0, ptr %12, align 4, !tbaa !12
  br label %176

176:                                              ; preds = %202, %166
  %177 = load i32, ptr %12, align 4, !tbaa !12
  %178 = sext i32 %177 to i64
  %179 = load ptr, ptr %5, align 8, !tbaa !8
  %180 = getelementptr inbounds nuw %struct.ASN1_ITEM_st, ptr %179, i32 0, i32 3
  %181 = load i64, ptr %180, align 8, !tbaa !27
  %182 = icmp slt i64 %178, %181
  br i1 %182, label %183, label %205

183:                                              ; preds = %176
  call void @llvm.lifetime.start.p0(i64 8, ptr %15) #5
  %184 = load ptr, ptr %7, align 8, !tbaa !14
  %185 = getelementptr inbounds %struct.ASN1_TEMPLATE_st, ptr %184, i32 -1
  store ptr %185, ptr %7, align 8, !tbaa !14
  %186 = load ptr, ptr %4, align 8, !tbaa !10
  %187 = load ptr, ptr %186, align 8, !tbaa !3
  %188 = load ptr, ptr %7, align 8, !tbaa !14
  %189 = call ptr @ossl_asn1_do_adb(ptr noundef %187, ptr noundef %188, i32 noundef 0)
  store ptr %189, ptr %8, align 8, !tbaa !14
  %190 = load ptr, ptr %8, align 8, !tbaa !14
  %191 = icmp ne ptr %190, null
  br i1 %191, label %193, label %192

192:                                              ; preds = %183
  store i32 5, ptr %13, align 4
  br label %199

193:                                              ; preds = %183
  %194 = load ptr, ptr %4, align 8, !tbaa !10
  %195 = load ptr, ptr %8, align 8, !tbaa !14
  %196 = call ptr @ossl_asn1_get_field_ptr(ptr noundef %194, ptr noundef %195)
  store ptr %196, ptr %15, align 8, !tbaa !10
  %197 = load ptr, ptr %15, align 8, !tbaa !10
  %198 = load ptr, ptr %8, align 8, !tbaa !14
  call void @ossl_asn1_template_free(ptr noundef %197, ptr noundef %198)
  store i32 0, ptr %13, align 4
  br label %199

199:                                              ; preds = %193, %192
  call void @llvm.lifetime.end.p0(i64 8, ptr %15) #5
  %200 = load i32, ptr %13, align 4
  switch i32 %200, label %225 [
    i32 0, label %201
    i32 5, label %202
  ]

201:                                              ; preds = %199
  br label %202

202:                                              ; preds = %201, %199
  %203 = load i32, ptr %12, align 4, !tbaa !12
  %204 = add nsw i32 %203, 1
  store i32 %204, ptr %12, align 4, !tbaa !12
  br label %176, !llvm.loop !32

205:                                              ; preds = %176
  %206 = load ptr, ptr %11, align 8, !tbaa !25
  %207 = icmp ne ptr %206, null
  br i1 %207, label %208, label %213

208:                                              ; preds = %205
  %209 = load ptr, ptr %11, align 8, !tbaa !25
  %210 = load ptr, ptr %4, align 8, !tbaa !10
  %211 = load ptr, ptr %5, align 8, !tbaa !8
  %212 = call i32 %209(i32 noundef 3, ptr noundef %210, ptr noundef %211, ptr noundef null)
  br label %213

213:                                              ; preds = %208, %205
  %214 = load i32, ptr %6, align 4, !tbaa !12
  %215 = icmp eq i32 %214, 0
  br i1 %215, label %216, label %220

216:                                              ; preds = %213
  %217 = load ptr, ptr %4, align 8, !tbaa !10
  %218 = load ptr, ptr %217, align 8, !tbaa !3
  call void @CRYPTO_free(ptr noundef %218, ptr noundef @.str, i32 noundef 119)
  %219 = load ptr, ptr %4, align 8, !tbaa !10
  store ptr null, ptr %219, align 8, !tbaa !3
  br label %220

220:                                              ; preds = %216, %213
  br label %221

221:                                              ; preds = %46, %220, %140, %122, %66, %65
  store i32 0, ptr %13, align 4
  br label %222

222:                                              ; preds = %221, %164, %152, %80, %32, %21
  call void @llvm.lifetime.end.p0(i64 4, ptr %12) #5
  call void @llvm.lifetime.end.p0(i64 8, ptr %11) #5
  call void @llvm.lifetime.end.p0(i64 8, ptr %10) #5
  call void @llvm.lifetime.end.p0(i64 8, ptr %9) #5
  call void @llvm.lifetime.end.p0(i64 8, ptr %8) #5
  call void @llvm.lifetime.end.p0(i64 8, ptr %7) #5
  %223 = load i32, ptr %13, align 4
  switch i32 %223, label %225 [
    i32 0, label %224
    i32 1, label %224
  ]

224:                                              ; preds = %222, %222
  ret void

225:                                              ; preds = %222, %199
  unreachable
}