; Function Attrs: nounwind uwtable
define void @ossl_asn1_item_embed_free(ptr noundef %0, ptr noundef %1, i32 noundef %2) local_unnamed_addr #0 {
  %4 = getelementptr inbounds nuw i8, ptr %1, i64 32
  %5 = load ptr, ptr %4, align 8, !tbaa !8
  %6 = icmp eq ptr %0, null
  br i1 %6, label %84, label %7

7:                                                ; preds = %3
  %8 = load i8, ptr %1, align 8, !tbaa !13
  %.not = icmp eq i8 %8, 0
  br i1 %.not, label %12, label %9

9:                                                ; preds = %7
  %10 = load ptr, ptr %0, align 8, !tbaa !3
  %11 = icmp eq ptr %10, null
  br i1 %11, label %84, label %12

12:                                               ; preds = %9, %7
  %.not87 = icmp eq ptr %5, null
  br i1 %.not87, label %16, label %13

13:                                               ; preds = %12
  %14 = getelementptr inbounds nuw i8, ptr %5, i64 24
  %15 = load ptr, ptr %14, align 8, !tbaa !14
  %.not88 = icmp eq ptr %15, null
  br i1 %.not88, label %16, label %17

16:                                               ; preds = %13, %12
  br label %17

17:                                               ; preds = %13, %16
  %.076 = phi ptr [ null, %16 ], [ %15, %13 ]
  switch i8 %8, label %84 [
    i8 0, label %18
    i8 5, label %23
    i8 2, label %24
    i8 4, label %48
    i8 6, label %53
    i8 1, label %53
  ]

18:                                               ; preds = %17
  %19 = getelementptr inbounds nuw i8, ptr %1, i64 16
  %20 = load ptr, ptr %19, align 8, !tbaa !17
  %.not95 = icmp eq ptr %20, null
  br i1 %.not95, label %22, label %21

21:                                               ; preds = %18
  tail call void @ossl_asn1_template_free(ptr noundef nonnull %0, ptr noundef nonnull %20)
  br label %84

22:                                               ; preds = %18
  tail call void @ossl_asn1_primitive_free(ptr noundef nonnull %0, ptr noundef nonnull %1, i32 noundef %2)
  br label %84

23:                                               ; preds = %17
  tail call void @ossl_asn1_primitive_free(ptr noundef nonnull %0, ptr noundef nonnull %1, i32 noundef %2)
  br label %84

24:                                               ; preds = %17
  %.not94 = icmp eq ptr %.076, null
  br i1 %.not94, label %28, label %25

25:                                               ; preds = %24
  %26 = tail call i32 %.076(i32 noundef 2, ptr noundef nonnull %0, ptr noundef nonnull %1, ptr noundef null) #4
  %27 = icmp eq i32 %26, 2
  br i1 %27, label %84, label %28

28:                                               ; preds = %25, %24
  %29 = tail call i32 @ossl_asn1_get_choice_selector(ptr noundef nonnull %0, ptr noundef nonnull %1) #4
  %30 = icmp sgt i32 %29, -1
  br i1 %30, label %31, label %41

31:                                               ; preds = %28
  %32 = zext nneg i32 %29 to i64
  %33 = getelementptr inbounds nuw i8, ptr %1, i64 24
  %34 = load i64, ptr %33, align 8, !tbaa !18
  %35 = icmp sgt i64 %34, %32
  br i1 %35, label %36, label %41

36:                                               ; preds = %31
  %37 = getelementptr inbounds nuw i8, ptr %1, i64 16
  %38 = load ptr, ptr %37, align 8, !tbaa !17
  %39 = getelementptr inbounds nuw %struct.ASN1_TEMPLATE_st, ptr %38, i64 %32
  %40 = tail call ptr @ossl_asn1_get_field_ptr(ptr noundef nonnull %0, ptr noundef %39) #4
  tail call void @ossl_asn1_template_free(ptr noundef %40, ptr noundef %39)
  br label %41

41:                                               ; preds = %36, %31, %28
  br i1 %.not94, label %44, label %42

42:                                               ; preds = %41
  %43 = tail call i32 %.076(i32 noundef 3, ptr noundef nonnull %0, ptr noundef nonnull %1, ptr noundef null) #4
  br label %44

44:                                               ; preds = %42, %41
  %45 = icmp eq i32 %2, 0
  br i1 %45, label %46, label %84

46:                                               ; preds = %44
  %47 = load ptr, ptr %0, align 8, !tbaa !3
  tail call void @CRYPTO_free(ptr noundef %47, ptr noundef nonnull @.str, i32 noundef 75) #4
  store ptr null, ptr %0, align 8, !tbaa !3
  br label %84

48:                                               ; preds = %17
  br i1 %.not87, label %84, label %49

49:                                               ; preds = %48
  %50 = getelementptr inbounds nuw i8, ptr %5, i64 16
  %51 = load ptr, ptr %50, align 8, !tbaa !19
  %.not93 = icmp eq ptr %51, null
  br i1 %.not93, label %84, label %52

52:                                               ; preds = %49
  tail call void %51(ptr noundef nonnull %0, ptr noundef nonnull %1) #4
  br label %84

53:                                               ; preds = %17, %17
  %54 = tail call i32 @ossl_asn1_do_lock(ptr noundef nonnull %0, i32 noundef -1, ptr noundef nonnull %1) #4
  %.not89 = icmp eq i32 %54, 0
  br i1 %.not89, label %59, label %55

55:                                               ; preds = %53
  %56 = icmp eq i32 %2, 0
  br i1 %56, label %58, label %57

57:                                               ; preds = %55
  tail call void @OPENSSL_die(ptr noundef nonnull @.str.1, ptr noundef nonnull @.str, i32 noundef 90) #5
  unreachable

58:                                               ; preds = %55
  store ptr null, ptr %0, align 8, !tbaa !3
  br label %84

59:                                               ; preds = %53
  %.not90 = icmp eq ptr %.076, null
  br i1 %.not90, label %63, label %60

60:                                               ; preds = %59
  %61 = tail call i32 %.076(i32 noundef 2, ptr noundef nonnull %0, ptr noundef nonnull %1, ptr noundef null) #4
  %62 = icmp eq i32 %61, 2
  br i1 %62, label %84, label %63

63:                                               ; preds = %60, %59
  tail call void @ossl_asn1_enc_free(ptr noundef nonnull %0, ptr noundef nonnull %1) #4
  %64 = getelementptr inbounds nuw i8, ptr %1, i64 24
  %65 = load i64, ptr %64, align 8, !tbaa !18
  %66 = icmp sgt i64 %65, 0
  br i1 %66, label %.lr.ph.preheader, label %._crit_edge

.lr.ph.preheader:                                 ; preds = %63
  %67 = getelementptr inbounds nuw i8, ptr %1, i64 16
  %68 = load ptr, ptr %67, align 8, !tbaa !17
  %69 = getelementptr inbounds nuw %struct.ASN1_TEMPLATE_st, ptr %68, i64 %65
  br label %.lr.ph

.lr.ph:                                           ; preds = %.lr.ph.preheader, %75
  %indvars.iv = phi i64 [ 0, %.lr.ph.preheader ], [ %indvars.iv.next, %75 ]
  %.097 = phi ptr [ %69, %.lr.ph.preheader ], [ %70, %75 ]
  %70 = getelementptr inbounds i8, ptr %.097, i64 -40
  %71 = load ptr, ptr %0, align 8, !tbaa !3
  %72 = tail call ptr @ossl_asn1_do_adb(ptr noundef %71, ptr noundef nonnull %70, i32 noundef 0) #4
  %.not91 = icmp eq ptr %72, null
  br i1 %.not91, label %75, label %73

73:                                               ; preds = %.lr.ph
  %74 = tail call ptr @ossl_asn1_get_field_ptr(ptr noundef nonnull %0, ptr noundef nonnull %72) #4
  tail call void @ossl_asn1_template_free(ptr noundef %74, ptr noundef nonnull %72)
  br label %75

75:                                               ; preds = %.lr.ph, %73
  %indvars.iv.next = add nuw nsw i64 %indvars.iv, 1
  %76 = load i64, ptr %64, align 8, !tbaa !18
  %77 = icmp sgt i64 %76, %indvars.iv.next
  br i1 %77, label %.lr.ph, label %._crit_edge, !llvm.loop !21

._crit_edge:                                      ; preds = %75, %63
  br i1 %.not90, label %80, label %78

78:                                               ; preds = %._crit_edge
  %79 = tail call i32 %.076(i32 noundef 3, ptr noundef nonnull %0, ptr noundef nonnull %1, ptr noundef null) #4
  br label %80

80:                                               ; preds = %78, %._crit_edge
  %81 = icmp eq i32 %2, 0
  br i1 %81, label %82, label %84

82:                                               ; preds = %80
  %83 = load ptr, ptr %0, align 8, !tbaa !3
  tail call void @CRYPTO_free(ptr noundef %83, ptr noundef nonnull @.str, i32 noundef 119) #4
  store ptr null, ptr %0, align 8, !tbaa !3
  br label %84

84:                                               ; preds = %17, %23, %22, %21, %46, %44, %52, %49, %48, %82, %80, %60, %25, %9, %3, %58
  ret void
}